target datalayout = "e-m:e-p270:32:32-p271:32:32-p272:64:64-i64:64-i128:128-f80:128-n8:16:32:64-S128"
target triple = "x86_64-pc-linux-gnu"

; Function Attrs: nounwind uwtable
define internal i32 @ends_with(ptr noundef %0, ptr noundef %1) #0 {
  %3 = alloca i32, align 4
  %4 = alloca ptr, align 8
  %5 = alloca ptr, align 8
  %6 = alloca i64, align 8
  %7 = alloca i64, align 8
  %8 = alloca i32, align 4
  store ptr %0, ptr %4, align 8, !tbaa !15
  store ptr %1, ptr %5, align 8, !tbaa !15
  call void @llvm.lifetime.start.p0(i64 8, ptr %6) #11
  %9 = load ptr, ptr %4, align 8, !tbaa !15
  %10 = call i64 @strlen(ptr noundef %9) #15
  store i64 %10, ptr %6, align 8, !tbaa !60
  call void @llvm.lifetime.start.p0(i64 8, ptr %7) #11
  %11 = load ptr, ptr %5, align 8, !tbaa !15
  %12 = call i64 @strlen(ptr noundef %11) #15
  store i64 %12, ptr %7, align 8, !tbaa !60
  %13 = load i64, ptr %6, align 8, !tbaa !60
  %14 = load i64, ptr %7, align 8, !tbaa !60
  %15 = icmp ult i64 %13, %14
  br i1 %15, label %16, label %17

16:                                               ; preds = %2
  store i32 0, ptr %3, align 4
  store i32 1, ptr %8, align 4
  br label %29

17:                                               ; preds = %2
  %18 = load ptr, ptr %4, align 8, !tbaa !15
  %19 = load i64, ptr %6, align 8, !tbaa !60
  %20 = getelementptr inbounds nuw i8, ptr %18, i64 %19
  %21 = load i64, ptr %7, align 8, !tbaa !60
  %22 = sub i64 0, %21
  %23 = getelementptr inbounds i8, ptr %20, i64 %22
  %24 = load ptr, ptr %5, align 8, !tbaa !15
  %25 = load i64, ptr %7, align 8, !tbaa !60
  %26 = call i32 @memcmp(ptr noundef %23, ptr noundef %24, i64 noundef %25) #15
  %27 = icmp eq i32 %26, 0
  %28 = zext i1 %27 to i32
  store i32 %28, ptr %3, align 4
  store i32 1, ptr %8, align 4
  br label %29

29:                                               ; preds = %17, %16
  call void @llvm.lifetime.end.p0(i64 8, ptr %7) #11
  call void @llvm.lifetime.end.p0(i64 8, ptr %6) #11
  %30 = load i32, ptr %3, align 4
  ret i32 %30
}