; Function Attrs: mustprogress nofree nounwind willreturn memory(argmem: read) uwtable
define internal fastcc range(i32 0, 2) i32 @ends_with(ptr noundef readonly captures(none) %0, ptr noundef readonly captures(none) %1) unnamed_addr #15 {
  %3 = tail call i64 @strlen(ptr noundef nonnull dereferenceable(1) %0) #26
  %4 = tail call i64 @strlen(ptr noundef nonnull dereferenceable(1) %1) #26
  %5 = icmp ult i64 %3, %4
  br i1 %5, label %12, label %6

6:                                                ; preds = %2
  %7 = getelementptr inbounds nuw i8, ptr %0, i64 %3
  %8 = sub i64 0, %4
  %9 = getelementptr inbounds i8, ptr %7, i64 %8
  %bcmp = tail call i32 @bcmp(ptr nonnull %9, ptr nonnull %1, i64 %4)
  %10 = icmp eq i32 %bcmp, 0
  %11 = zext i1 %10 to i32
  br label %12

12:                                               ; preds = %2, %6
  %.0 = phi i32 [ %11, %6 ], [ 0, %2 ]
  ret i32 %.0
}